target datalayout = "e-m:e-p270:32:32-p271:32:32-p272:64:64-i64:64-i128:128-f80:128-n8:16:32:64-S128"
target triple = "x86_64-unknown-linux-gnu"

%struct.UDataInfo = type { i16, i16, i8, i8, i8, i8, [4 x i8], [4 x i8], [4 x i8] }

; Function Attrs: mustprogress nounwind uwtable
define internal noundef signext i8 @_ZL12isAcceptablePvPKcS1_PK9UDataInfo(ptr noundef %context, ptr noundef %0, ptr noundef %1, ptr noundef %pInfo) #2 {
entry:
  %context.addr = alloca ptr, align 8
  %.addr = alloca ptr, align 8
  %.addr1 = alloca ptr, align 8
  %pInfo.addr = alloca ptr, align 8
  store ptr %context, ptr %context.addr, align 8
  store ptr %0, ptr %.addr, align 8
  store ptr %1, ptr %.addr1, align 8
  store ptr %pInfo, ptr %pInfo.addr, align 8
  br label %do.body

do.body:                                          ; preds = %entry
  %2 = load ptr, ptr %context.addr, align 8
  %3 = load ptr, ptr %pInfo.addr, align 8
  %formatVersion = getelementptr inbounds %struct.UDataInfo, ptr %3, i32 0, i32 7
  %arraydecay = getelementptr inbounds [4 x i8], ptr %formatVersion, i64 0, i64 0
  call void @llvm.memcpy.p0.p0.i64(ptr align 1 %2, ptr align 2 %arraydecay, i64 4, i1 false)
  br label %do.end

do.end:                                           ; preds = %do.body
  %4 = load ptr, ptr %pInfo.addr, align 8
  %size = getelementptr inbounds %struct.UDataInfo, ptr %4, i32 0, i32 0
  %5 = load i16, ptr %size, align 2
  %conv = zext i16 %5 to i32
  %cmp = icmp sge i32 %conv, 20
  br i1 %cmp, label %land.lhs.true, label %land.end37

land.lhs.true:                                    ; preds = %do.end
  %6 = load ptr, ptr %pInfo.addr, align 8
  %isBigEndian = getelementptr inbounds %struct.UDataInfo, ptr %6, i32 0, i32 2
  %7 = load i8, ptr %isBigEndian, align 2
  %conv2 = zext i8 %7 to i32
  %cmp3 = icmp eq i32 %conv2, 0
  br i1 %cmp3, label %land.lhs.true4, label %land.end37

land.lhs.true4:                                   ; preds = %land.lhs.true
  %8 = load ptr, ptr %pInfo.addr, align 8
  %charsetFamily = getelementptr inbounds %struct.UDataInfo, ptr %8, i32 0, i32 3
  %9 = load i8, ptr %charsetFamily, align 1
  %conv5 = zext i8 %9 to i32
  %cmp6 = icmp eq i32 %conv5, 0
  br i1 %cmp6, label %land.lhs.true7, label %land.end37

land.lhs.true7:                                   ; preds = %land.lhs.true4
  %10 = load ptr, ptr %pInfo.addr, align 8
  %sizeofUChar = getelementptr inbounds %struct.UDataInfo, ptr %10, i32 0, i32 4
  %11 = load i8, ptr %sizeofUChar, align 2
  %conv8 = zext i8 %11 to i32
  %cmp9 = icmp eq i32 %conv8, 2
  br i1 %cmp9, label %land.lhs.true10, label %land.end37

land.lhs.true10:                                  ; preds = %land.lhs.true7
  %12 = load ptr, ptr %pInfo.addr, align 8
  %dataFormat = getelementptr inbounds %struct.UDataInfo, ptr %12, i32 0, i32 6
  %arrayidx = getelementptr inbounds [4 x i8], ptr %dataFormat, i64 0, i64 0
  %13 = load i8, ptr %arrayidx, align 2
  %conv11 = zext i8 %13 to i32
  %cmp12 = icmp eq i32 %conv11, 82
  br i1 %cmp12, label %land.lhs.true13, label %land.end37

land.lhs.true13:                                  ; preds = %land.lhs.true10
  %14 = load ptr, ptr %pInfo.addr, align 8
  %dataFormat14 = getelementptr inbounds %struct.UDataInfo, ptr %14, i32 0, i32 6
  %arrayidx15 = getelementptr inbounds [4 x i8], ptr %dataFormat14, i64 0, i64 1
  %15 = load i8, ptr %arrayidx15, align 1
  %conv16 = zext i8 %15 to i32
  %cmp17 = icmp eq i32 %conv16, 101
  br i1 %cmp17, label %land.lhs.true18, label %land.end37

land.lhs.true18:                                  ; preds = %land.lhs.true13
  %16 = load ptr, ptr %pInfo.addr, align 8
  %dataFormat19 = getelementptr inbounds %struct.UDataInfo, ptr %16, i32 0, i32 6
  %arrayidx20 = getelementptr inbounds [4 x i8], ptr %dataFormat19, i64 0, i64 2
  %17 = load i8, ptr %arrayidx20, align 2
  %conv21 = zext i8 %17 to i32
  %cmp22 = icmp eq i32 %conv21, 115
  br i1 %cmp22, label %land.lhs.true23, label %land.end37

land.lhs.true23:                                  ; preds = %land.lhs.true18
  %18 = load ptr, ptr %pInfo.addr, align 8
  %dataFormat24 = getelementptr inbounds %struct.UDataInfo, ptr %18, i32 0, i32 6
  %arrayidx25 = getelementptr inbounds [4 x i8], ptr %dataFormat24, i64 0, i64 3
  %19 = load i8, ptr %arrayidx25, align 1
  %conv26 = zext i8 %19 to i32
  %cmp27 = icmp eq i32 %conv26, 66
  br i1 %cmp27, label %land.rhs, label %land.end37

land.rhs:                                         ; preds = %land.lhs.true23
  %20 = load ptr, ptr %pInfo.addr, align 8
  %formatVersion28 = getelementptr inbounds %struct.UDataInfo, ptr %20, i32 0, i32 7
  %arrayidx29 = getelementptr inbounds [4 x i8], ptr %formatVersion28, i64 0, i64 0
  %21 = load i8, ptr %arrayidx29, align 2
  %conv30 = zext i8 %21 to i32
  %cmp31 = icmp sle i32 1, %conv30
  br i1 %cmp31, label %land.rhs32, label %land.end

land.rhs32:                                       ; preds = %land.rhs
  %22 = load ptr, ptr %pInfo.addr, align 8
  %formatVersion33 = getelementptr inbounds %struct.UDataInfo, ptr %22, i32 0, i32 7
  %arrayidx34 = getelementptr inbounds [4 x i8], ptr %formatVersion33, i64 0, i64 0
  %23 = load i8, ptr %arrayidx34, align 2
  %conv35 = zext i8 %23 to i32
  %cmp36 = icmp sle i32 %conv35, 3
  br label %land.end

land.end:                                         ; preds = %land.rhs32, %land.rhs
  %24 = phi i1 [ false, %land.rhs ], [ %cmp36, %land.rhs32 ]
  br label %land.end37

land.end37:                                       ; preds = %land.end, %land.lhs.true23, %land.lhs.true18, %land.lhs.true13, %land.lhs.true10, %land.lhs.true7, %land.lhs.true4, %land.lhs.true, %do.end
  %25 = phi i1 [ false, %land.lhs.true23 ], [ false, %land.lhs.true18 ], [ false, %land.lhs.true13 ], [ false, %land.lhs.true10 ], [ false, %land.lhs.true7 ], [ false, %land.lhs.true4 ], [ false, %land.lhs.true ], [ false, %do.end ], [ %24, %land.end ]
  %conv38 = zext i1 %25 to i8
  ret i8 %conv38
}

; Function Attrs: mustprogress nounwind uwtable
define internal noundef signext i8 @_ZL9U_FAILURE10UErrorCode(i32 noundef %code) #2 {
entry:
  %code.addr = alloca i32, align 4
  store i32 %code, ptr %code.addr, align 4
  %0 = load i32, ptr %code.addr, align 4
  %cmp = icmp sgt i32 %0, 0
  %conv = zext i1 %cmp to i8
  ret i8 %conv
}

; Function Attrs: mustprogress uwtable
define void @res_read_75(ptr noundef %pResData, ptr noundef %pInfo, ptr noundef %inBytes, i32 noundef %length, ptr noundef %errorCode) #0 {
entry:
  %pResData.addr = alloca ptr, align 8
  %pInfo.addr = alloca ptr, align 8
  %inBytes.addr = alloca ptr, align 8
  %length.addr = alloca i32, align 4
  %errorCode.addr = alloca ptr, align 8
  %formatVersion = alloca [4 x i8], align 1
  store ptr %pResData, ptr %pResData.addr, align 8
  store ptr %pInfo, ptr %pInfo.addr, align 8
  store ptr %inBytes, ptr %inBytes.addr, align 8
  store i32 %length, ptr %length.addr, align 4
  store ptr %errorCode, ptr %errorCode.addr, align 8
  %0 = load ptr, ptr %pResData.addr, align 8
  call void @llvm.memset.p0.i64(ptr align 8 %0, i8 0, i64 64, i1 false)
  %1 = load ptr, ptr %errorCode.addr, align 8
  %2 = load i32, ptr %1, align 4
  %call = call noundef signext i8 @_ZL9U_FAILURE10UErrorCode(i32 noundef %2)
  %tobool = icmp ne i8 %call, 0
  br i1 %tobool, label %if.then, label %if.end

if.then:                                          ; preds = %entry
  br label %return

if.end:                                           ; preds = %entry
  %arraydecay = getelementptr inbounds [4 x i8], ptr %formatVersion, i64 0, i64 0
  %3 = load ptr, ptr %pInfo.addr, align 8
  %call1 = call noundef signext i8 @_ZL12isAcceptablePvPKcS1_PK9UDataInfo(ptr noundef %arraydecay, ptr noundef null, ptr noundef null, ptr noundef %3)
  %tobool2 = icmp ne i8 %call1, 0
  br i1 %tobool2, label %if.end4, label %if.then3

if.then3:                                         ; preds = %if.end
  %4 = load ptr, ptr %errorCode.addr, align 8
  store i32 3, ptr %4, align 4
  br label %return

if.end4:                                          ; preds = %if.end
  %5 = load ptr, ptr %pResData.addr, align 8
  %arraydecay5 = getelementptr inbounds [4 x i8], ptr %formatVersion, i64 0, i64 0
  %6 = load ptr, ptr %inBytes.addr, align 8
  %7 = load i32, ptr %length.addr, align 4
  %8 = load ptr, ptr %errorCode.addr, align 8
  call void @_ZL8res_initP12ResourceDataPhPKviP10UErrorCode(ptr noundef %5, ptr noundef %arraydecay5, ptr noundef %6, i32 noundef %7, ptr noundef %8)
  br label %return

return:                                           ; preds = %if.end4, %if.then3, %if.then
  ret void
}