; Function Attrs: mustprogress uwtable
define void @res_read_75(ptr nocapture noundef %pResData, ptr nocapture noundef readonly %pInfo, ptr noundef %inBytes, i32 noundef %length, ptr nocapture noundef %errorCode) local_unnamed_addr #0 {
entry:
  %formatVersion = alloca [4 x i8], align 4
  tail call void @llvm.memset.p0.i64(ptr noundef nonnull align 8 dereferenceable(64) %pResData, i8 0, i64 64, i1 false)
  %0 = load i32, ptr %errorCode, align 4
  %cmp.i = icmp slt i32 %0, 1
  br i1 %cmp.i, label %if.end, label %return

if.end:                                           ; preds = %entry
  %formatVersion.i = getelementptr inbounds i8, ptr %pInfo, i64 12
  %1 = load i32, ptr %formatVersion.i, align 2
  store i32 %1, ptr %formatVersion, align 4
  %2 = load i16, ptr %pInfo, align 2
  %cmp.i4 = icmp ugt i16 %2, 19
  %3 = trunc i32 %1 to i8
  br i1 %cmp.i4, label %land.lhs.true.i, label %if.then3

land.lhs.true.i:                                  ; preds = %if.end
  %isBigEndian.i = getelementptr inbounds i8, ptr %pInfo, i64 4
  %4 = load i8, ptr %isBigEndian.i, align 2
  %cmp3.i = icmp eq i8 %4, 0
  br i1 %cmp3.i, label %land.lhs.true4.i, label %if.then3

land.lhs.true4.i:                                 ; preds = %land.lhs.true.i
  %charsetFamily.i = getelementptr inbounds i8, ptr %pInfo, i64 5
  %5 = load i8, ptr %charsetFamily.i, align 1
  %cmp6.i = icmp eq i8 %5, 0
  br i1 %cmp6.i, label %land.lhs.true7.i, label %if.then3

land.lhs.true7.i:                                 ; preds = %land.lhs.true4.i
  %sizeofUChar.i = getelementptr inbounds i8, ptr %pInfo, i64 6
  %6 = load i8, ptr %sizeofUChar.i, align 2
  %cmp9.i = icmp eq i8 %6, 2
  br i1 %cmp9.i, label %land.lhs.true10.i, label %if.then3

land.lhs.true10.i:                                ; preds = %land.lhs.true7.i
  %dataFormat.i = getelementptr inbounds i8, ptr %pInfo, i64 8
  %7 = load i8, ptr %dataFormat.i, align 2
  %cmp12.i = icmp eq i8 %7, 82
  br i1 %cmp12.i, label %land.lhs.true13.i, label %if.then3

land.lhs.true13.i:                                ; preds = %land.lhs.true10.i
  %arrayidx15.i = getelementptr inbounds i8, ptr %pInfo, i64 9
  %8 = load i8, ptr %arrayidx15.i, align 1
  %cmp17.i = icmp eq i8 %8, 101
  br i1 %cmp17.i, label %land.lhs.true18.i, label %if.then3

land.lhs.true18.i:                                ; preds = %land.lhs.true13.i
  %arrayidx20.i = getelementptr inbounds i8, ptr %pInfo, i64 10
  %9 = load i8, ptr %arrayidx20.i, align 2
  %cmp22.i = icmp eq i8 %9, 115
  br i1 %cmp22.i, label %land.lhs.true23.i, label %if.then3

land.lhs.true23.i:                                ; preds = %land.lhs.true18.i
  %arrayidx25.i = getelementptr inbounds i8, ptr %pInfo, i64 11
  %10 = load i8, ptr %arrayidx25.i, align 1
  %cmp27.i = icmp ne i8 %10, 66
  %11 = add i8 %3, -4
  %or.cond = icmp ult i8 %11, -3
  %or.cond7 = select i1 %cmp27.i, i1 true, i1 %or.cond
  br i1 %or.cond7, label %if.then3, label %if.end4

if.then3:                                         ; preds = %if.end, %land.lhs.true.i, %land.lhs.true4.i, %land.lhs.true7.i, %land.lhs.true10.i, %land.lhs.true13.i, %land.lhs.true18.i, %land.lhs.true23.i
  store i32 3, ptr %errorCode, align 4
  br label %return

if.end4:                                          ; preds = %land.lhs.true23.i
  call fastcc void @_ZL8res_initP12ResourceDataPhPKviP10UErrorCode(ptr noundef nonnull %pResData, ptr noundef nonnull %formatVersion, ptr noundef %inBytes, i32 noundef %length, ptr noundef nonnull %errorCode)
  br label %return

return:                                           ; preds = %entry, %if.end4, %if.then3
  ret void
}